; ModuleID = '20/331.c'
source_filename = "20/331.c"
target datalayout = "e-m:e-p270:32:32-p271:32:32-p272:64:64-i64:64-f80:128-n8:16:32:64-S128"
target triple = "x86_64-pc-linux-gnu"

@.str = private unnamed_addr constant [3 x i8] c"%s\00", align 1
@.str.1 = private unnamed_addr constant [2 x i8] c"\0A\00", align 1

; Function Attrs: noinline nounwind uwtable
define dso_local void @main() #0 {
  %1 = alloca [10000 x [100 x i8]], align 16
  %2 = alloca [10000 x [100 x i8]], align 16
  %3 = alloca i8, align 1
  %4 = alloca i32, align 4
  %5 = alloca i32, align 4
  %6 = alloca i32, align 4
  %7 = alloca i32, align 4
  %8 = alloca i32, align 4
  store i32 0, i32* %7, align 4
  store i32 0, i32* %4, align 4
  br label %9

9:                                                ; preds = %118, %0
  %10 = load i32, i32* %4, align 4
  %11 = sext i32 %10 to i64
  %12 = getelementptr inbounds [10000 x [100 x i8]], [10000 x [100 x i8]]* %1, i64 0, i64 %11
  %13 = call i32 (i8*, ...) @__isoc99_scanf(i8* getelementptr inbounds ([3 x i8], [3 x i8]* @.str, i64 0, i64 0), [100 x i8]* %12)
  %14 = icmp ne i32 %13, -1
  br i1 %14, label %15, label %121

15:                                               ; preds = %9
  %16 = load i32, i32* %4, align 4
  %17 = sext i32 %16 to i64
  %18 = getelementptr inbounds [10000 x [100 x i8]], [10000 x [100 x i8]]* %2, i64 0, i64 %17
  %19 = call i32 (i8*, ...) @__isoc99_scanf(i8* getelementptr inbounds ([3 x i8], [3 x i8]* @.str, i64 0, i64 0), [100 x i8]* %18)
  %20 = load i32, i32* %4, align 4
  %21 = sext i32 %20 to i64
  %22 = getelementptr inbounds [10000 x [100 x i8]], [10000 x [100 x i8]]* %1, i64 0, i64 %21
  %23 = getelementptr inbounds [100 x i8], [100 x i8]* %22, i64 0, i64 0
  %24 = load i8, i8* %23, align 4
  store i8 %24, i8* %3, align 1
  store i32 0, i32* %8, align 4
  store i32 1, i32* %5, align 4
  br label %25

25:                                               ; preds = %57, %15
  %26 = load i32, i32* %5, align 4
  %27 = sext i32 %26 to i64
  %28 = load i32, i32* %4, align 4
  %29 = sext i32 %28 to i64
  %30 = getelementptr inbounds [10000 x [100 x i8]], [10000 x [100 x i8]]* %1, i64 0, i64 %29
  %31 = getelementptr inbounds [100 x i8], [100 x i8]* %30, i64 0, i64 0
  %32 = call i64 @strlen(i8* %31) #3
  %33 = sub i64 %32, 1
  %34 = icmp ule i64 %27, %33
  br i1 %34, label %35, label %60

35:                                               ; preds = %25
  %36 = load i32, i32* %4, align 4
  %37 = sext i32 %36 to i64
  %38 = getelementptr inbounds [10000 x [100 x i8]], [10000 x [100 x i8]]* %1, i64 0, i64 %37
  %39 = load i32, i32* %5, align 4
  %40 = sext i32 %39 to i64
  %41 = getelementptr inbounds [100 x i8], [100 x i8]* %38, i64 0, i64 %40
  %42 = load i8, i8* %41, align 1
  %43 = sext i8 %42 to i32
  %44 = load i8, i8* %3, align 1
  %45 = sext i8 %44 to i32
  %46 = icmp sgt i32 %43, %45
  br i1 %46, label %47, label %56

47:                                               ; preds = %35
  %48 = load i32, i32* %4, align 4
  %49 = sext i32 %48 to i64
  %50 = getelementptr inbounds [10000 x [100 x i8]], [10000 x [100 x i8]]* %1, i64 0, i64 %49
  %51 = load i32, i32* %5, align 4
  %52 = sext i32 %51 to i64
  %53 = getelementptr inbounds [100 x i8], [100 x i8]* %50, i64 0, i64 %52
  %54 = load i8, i8* %53, align 1
  store i8 %54, i8* %3, align 1
  %55 = load i32, i32* %5, align 4
  store i32 %55, i32* %8, align 4
  br label %56

56:                                               ; preds = %47, %35
  br label %57

57:                                               ; preds = %56
  %58 = load i32, i32* %5, align 4
  %59 = add nsw i32 %58, 1
  store i32 %59, i32* %5, align 4
  br label %25

60:                                               ; preds = %25
  %61 = load i32, i32* %4, align 4
  %62 = sext i32 %61 to i64
  %63 = getelementptr inbounds [10000 x [100 x i8]], [10000 x [100 x i8]]* %1, i64 0, i64 %62
  %64 = getelementptr inbounds [100 x i8], [100 x i8]* %63, i64 0, i64 0
  %65 = call i64 @strlen(i8* %64) #3
  %66 = trunc i64 %65 to i32
  store i32 %66, i32* %6, align 4
  br label %67

67:                                               ; preds = %87, %60
  %68 = load i32, i32* %6, align 4
  %69 = load i32, i32* %8, align 4
  %70 = add nsw i32 %69, 1
  %71 = icmp sge i32 %68, %70
  br i1 %71, label %72, label %90

72:                                               ; preds = %67
  %73 = load i32, i32* %4, align 4
  %74 = sext i32 %73 to i64
  %75 = getelementptr inbounds [10000 x [100 x i8]], [10000 x [100 x i8]]* %1, i64 0, i64 %74
  %76 = load i32, i32* %6, align 4
  %77 = sext i32 %76 to i64
  %78 = getelementptr inbounds [100 x i8], [100 x i8]* %75, i64 0, i64 %77
  %79 = load i8, i8* %78, align 1
  %80 = load i32, i32* %4, align 4
  %81 = sext i32 %80 to i64
  %82 = getelementptr inbounds [10000 x [100 x i8]], [10000 x [100 x i8]]* %1, i64 0, i64 %81
  %83 = load i32, i32* %6, align 4
  %84 = add nsw i32 %83, 3
  %85 = sext i32 %84 to i64
  %86 = getelementptr inbounds [100 x i8], [100 x i8]* %82, i64 0, i64 %85
  store i8 %79, i8* %86, align 1
  br label %87

87:                                               ; preds = %72
  %88 = load i32, i32* %6, align 4
  %89 = add nsw i32 %88, -1
  store i32 %89, i32* %6, align 4
  br label %67

90:                                               ; preds = %67
  %91 = load i32, i32* %8, align 4
  %92 = add nsw i32 %91, 1
  store i32 %92, i32* %6, align 4
  br label %93

93:                                               ; preds = %115, %90
  %94 = load i32, i32* %6, align 4
  %95 = load i32, i32* %8, align 4
  %96 = add nsw i32 %95, 3
  %97 = icmp sle i32 %94, %96
  br i1 %97, label %98, label %118

98:                                               ; preds = %93
  %99 = load i32, i32* %4, align 4
  %100 = sext i32 %99 to i64
  %101 = getelementptr inbounds [10000 x [100 x i8]], [10000 x [100 x i8]]* %2, i64 0, i64 %100
  %102 = load i32, i32* %6, align 4
  %103 = load i32, i32* %8, align 4
  %104 = sub nsw i32 %102, %103
  %105 = sub nsw i32 %104, 1
  %106 = sext i32 %105 to i64
  %107 = getelementptr inbounds [100 x i8], [100 x i8]* %101, i64 0, i64 %106
  %108 = load i8, i8* %107, align 1
  %109 = load i32, i32* %4, align 4
  %110 = sext i32 %109 to i64
  %111 = getelementptr inbounds [10000 x [100 x i8]], [10000 x [100 x i8]]* %1, i64 0, i64 %110
  %112 = load i32, i32* %6, align 4
  %113 = sext i32 %112 to i64
  %114 = getelementptr inbounds [100 x i8], [100 x i8]* %111, i64 0, i64 %113
  store i8 %108, i8* %114, align 1
  br label %115

115:                                              ; preds = %98
  %116 = load i32, i32* %6, align 4
  %117 = add nsw i32 %116, 1
  store i32 %117, i32* %6, align 4
  br label %93

118:                                              ; preds = %93
  %119 = load i32, i32* %4, align 4
  %120 = add nsw i32 %119, 1
  store i32 %120, i32* %4, align 4
  br label %9

121:                                              ; preds = %9
  store i32 0, i32* %5, align 4
  br label %122

122:                                              ; preds = %134, %121
  %123 = load i32, i32* %5, align 4
  %124 = load i32, i32* %4, align 4
  %125 = sub nsw i32 %124, 1
  %126 = icmp sle i32 %123, %125
  br i1 %126, label %127, label %137

127:                                              ; preds = %122
  %128 = load i32, i32* %5, align 4
  %129 = sext i32 %128 to i64
  %130 = getelementptr inbounds [10000 x [100 x i8]], [10000 x [100 x i8]]* %1, i64 0, i64 %129
  %131 = getelementptr inbounds [100 x i8], [100 x i8]* %130, i64 0, i64 0
  %132 = call i32 @puts(i8* %131)
  %133 = call i32 (i8*, ...) @printf(i8* getelementptr inbounds ([2 x i8], [2 x i8]* @.str.1, i64 0, i64 0))
  br label %134

134:                                              ; preds = %127
  %135 = load i32, i32* %5, align 4
  %136 = add nsw i32 %135, 1
  store i32 %136, i32* %5, align 4
  br label %122

137:                                              ; preds = %122
  ret void
}

declare dso_local i32 @__isoc99_scanf(i8*, ...) #1

; Function Attrs: nounwind readonly
declare dso_local i64 @strlen(i8*) #2

declare dso_local i32 @puts(i8*) #1

declare dso_local i32 @printf(i8*, ...) #1


!llvm.module.flags = !{!0}
!llvm.ident = !{!1}

!0 = !{i32 1, !"wchar_size", i32 4}
!1 = !{!"clang version 10.0.0-4ubuntu1 "}
